target datalayout = "e-m:e-p270:32:32-p271:32:32-p272:64:64-i64:64-i128:128-f80:128-n8:16:32:64-S128"
target triple = "x86_64-unknown-linux-gnu"

%"class.node::Histogram" = type { %"class.node::MemoryRetainer", %"class.std::unique_ptr", i64, i64, i64, %"class.node::MutexBase" }
%"class.node::MemoryRetainer" = type { ptr }
%"class.std::unique_ptr" = type { %"struct.std::__uniq_ptr_data" }
%"struct.std::__uniq_ptr_data" = type { %"class.std::__uniq_ptr_impl" }
%"class.std::__uniq_ptr_impl" = type { %"class.std::tuple" }
%"class.std::tuple" = type { %"struct.std::_Tuple_impl" }
%"struct.std::_Tuple_impl" = type { %"struct.std::_Head_base.1" }
%"struct.std::_Head_base.1" = type { ptr }
%"class.node::MutexBase" = type { %union.pthread_mutex_t }
%union.pthread_mutex_t = type { %struct.__pthread_mutex_s }
%struct.__pthread_mutex_s = type { i32, i32, i32, i32, i32, i16, i16, %struct.__pthread_internal_list }
%struct.__pthread_internal_list = type { ptr, ptr }
%"class.node::HistogramImpl" = type { %"class.std::shared_ptr" }
%"class.std::shared_ptr" = type { %"class.std::__shared_ptr" }
%"class.std::__shared_ptr" = type { ptr, %"class.std::__shared_count" }
%"class.std::__shared_count" = type { ptr }
%"class.v8::Local" = type { %"class.v8::LocalBase" }
%"class.v8::LocalBase" = type { %"class.v8::IndirectHandleBase" }
%"class.v8::IndirectHandleBase" = type { ptr }
%"class.v8::Local.291" = type { %"class.v8::LocalBase.292" }
%"class.v8::LocalBase.292" = type { %"class.v8::IndirectHandleBase" }
%"class.v8::ReturnValue" = type { ptr }
%"class.v8::Local.7" = type { %"class.v8::LocalBase.8" }
%"class.v8::LocalBase.8" = type { %"class.v8::IndirectHandleBase" }

; Function Attrs: mustprogress nounwind uwtable
define linkonce_odr dso_local noundef ptr @_ZNKSt12__shared_ptrIN4node9HistogramELN9__gnu_cxx12_Lock_policyE2EE3getEv(ptr noundef nonnull align 8 dereferenceable(16) %this) #4 comdat align 2 {
entry:
  %this.addr = alloca ptr, align 8
  store ptr %this, ptr %this.addr, align 8
  %this1 = load ptr, ptr %this.addr, align 8
  %_M_ptr = getelementptr inbounds %"class.std::__shared_ptr", ptr %this1, i32 0, i32 0
  %0 = load ptr, ptr %_M_ptr, align 8
  ret ptr %0
}

; Function Attrs: mustprogress nounwind uwtable
define linkonce_odr dso_local noundef i64 @_ZNK4node9Histogram7ExceedsEv(ptr noundef nonnull align 8 dereferenceable(80) %this) #4 comdat align 2 {
entry:
  %this.addr = alloca ptr, align 8
  store ptr %this, ptr %this.addr, align 8
  %this1 = load ptr, ptr %this.addr, align 8
  %exceeds_ = getelementptr inbounds %"class.node::Histogram", ptr %this1, i32 0, i32 3
  %0 = load i64, ptr %exceeds_, align 8
  ret i64 %0
}

; Function Attrs: mustprogress nounwind uwtable
define linkonce_odr dso_local noundef ptr @_ZN4node13HistogramImplptEv(ptr noundef nonnull align 8 dereferenceable(16) %this) #4 comdat align 2 {
entry:
  %this.addr = alloca ptr, align 8
  store ptr %this, ptr %this.addr, align 8
  %this1 = load ptr, ptr %this.addr, align 8
  %histogram_ = getelementptr inbounds %"class.node::HistogramImpl", ptr %this1, i32 0, i32 0
  %call = call noundef ptr @_ZNKSt12__shared_ptrIN4node9HistogramELN9__gnu_cxx12_Lock_policyE2EE3getEv(ptr noundef nonnull align 8 dereferenceable(16) %histogram_) #3
  ret ptr %call
}

; Function Attrs: mustprogress nounwind uwtable
define linkonce_odr dso_local noundef ptr @_ZN4node10BaseObject12FromJSObjectEN2v85LocalINS1_5ValueEEE(ptr %value.coerce) #4 comdat align 2 {
entry:
  %heap_object_ptr.addr.i42 = alloca i64, align 8
  %offset.addr.i43 = alloca i32, align 4
  %addr.i44 = alloca i64, align 8
  %heap_object_ptr.addr.i36 = alloca i64, align 8
  %offset.addr.i37 = alloca i32, align 4
  %addr.i38 = alloca i64, align 8
  %heap_object_ptr.addr.i31 = alloca i64, align 8
  %offset.addr.i32 = alloca i32, align 4
  %addr.i = alloca i64, align 8
  %heap_object_ptr.addr.i28 = alloca i64, align 8
  %offset.addr.i29 = alloca i32, align 4
  %isolate.addr.i = alloca ptr, align 8
  %heap_object_ptr.addr.i = alloca i64, align 8
  %offset.addr.i = alloca i32, align 4
  %obj.addr.i26 = alloca i64, align 8
  %instance_type.addr.i = alloca i32, align 4
  %obj.addr.i = alloca i64, align 8
  %map.i = alloca i64, align 8
  %value.addr.i = alloca ptr, align 8
  %this.addr.i24 = alloca ptr, align 8
  %slot.addr.i = alloca ptr, align 8
  %this.addr.i21 = alloca ptr, align 8
  %this.addr.i18 = alloca ptr, align 8
  %other.addr.i19 = alloca ptr, align 8
  %this.addr.i16 = alloca ptr, align 8
  %other.addr.i = alloca ptr, align 8
  %retval.i15 = alloca %"class.v8::Local", align 8
  %that.i = alloca %"class.v8::Local.7", align 8
  %ref.tmp.i = alloca %"class.v8::LocalBase", align 8
  %retval.i11 = alloca ptr, align 8
  %this.addr.i12 = alloca ptr, align 8
  %index.addr.i = alloca i32, align 4
  %obj.i = alloca i64, align 8
  %instance_type.i = alloca i32, align 4
  %offset.i = alloca i32, align 4
  %isolate.i = alloca ptr, align 8
  %value.i = alloca i64, align 8
  %this.addr.i8 = alloca ptr, align 8
  %retval.i = alloca %"class.v8::Local", align 8
  %this.addr.i = alloca ptr, align 8
  %agg.tmp.i = alloca %"class.v8::Local.7", align 8
  %value = alloca %"class.v8::Local.7", align 8
  %obj = alloca %"class.v8::Local", align 8
  %coerce.dive = getelementptr inbounds %"class.v8::Local.7", ptr %value, i32 0, i32 0
  %coerce.dive1 = getelementptr inbounds %"class.v8::LocalBase.8", ptr %coerce.dive, i32 0, i32 0
  %coerce.dive2 = getelementptr inbounds %"class.v8::IndirectHandleBase", ptr %coerce.dive1, i32 0, i32 0
  store ptr %value.coerce, ptr %coerce.dive2, align 8
  store ptr %value, ptr %this.addr.i, align 8
  %this1.i = load ptr, ptr %this.addr.i, align 8
  call void @llvm.memcpy.p0.p0.i64(ptr align 8 %agg.tmp.i, ptr align 8 %this1.i, i64 8, i1 false)
  %0 = load ptr, ptr %agg.tmp.i, align 8
  store ptr %0, ptr %that.i, align 8
  store ptr %ref.tmp.i, ptr %this.addr.i16, align 8
  store ptr %that.i, ptr %other.addr.i, align 8
  %this1.i17 = load ptr, ptr %this.addr.i16, align 8
  %1 = load ptr, ptr %other.addr.i, align 8
  call void @llvm.memcpy.p0.p0.i64(ptr align 8 %this1.i17, ptr align 8 %1, i64 8, i1 false)
  store ptr %retval.i15, ptr %this.addr.i18, align 8
  store ptr %ref.tmp.i, ptr %other.addr.i19, align 8
  %this1.i20 = load ptr, ptr %this.addr.i18, align 8
  %2 = load ptr, ptr %other.addr.i19, align 8
  call void @llvm.memcpy.p0.p0.i64(ptr align 8 %this1.i20, ptr align 8 %2, i64 8, i1 false)
  %3 = load ptr, ptr %retval.i15, align 8
  store ptr %3, ptr %retval.i, align 8
  %4 = load ptr, ptr %retval.i, align 8
  %coerce.dive3 = getelementptr inbounds %"class.v8::Local", ptr %obj, i32 0, i32 0
  %coerce.dive4 = getelementptr inbounds %"class.v8::LocalBase", ptr %coerce.dive3, i32 0, i32 0
  %coerce.dive5 = getelementptr inbounds %"class.v8::IndirectHandleBase", ptr %coerce.dive4, i32 0, i32 0
  store ptr %4, ptr %coerce.dive5, align 8
  store ptr %obj, ptr %this.addr.i8, align 8
  %this1.i9 = load ptr, ptr %this.addr.i8, align 8
  store ptr %this1.i9, ptr %this.addr.i21, align 8
  %this1.i22 = load ptr, ptr %this.addr.i21, align 8
  store ptr %this1.i22, ptr %this.addr.i24, align 8
  %this1.i25 = load ptr, ptr %this.addr.i24, align 8
  %5 = load ptr, ptr %this1.i25, align 8
  store ptr %5, ptr %slot.addr.i, align 8
  %6 = load ptr, ptr %slot.addr.i, align 8
  store ptr %6, ptr %this.addr.i12, align 8
  store i32 1, ptr %index.addr.i, align 4
  %this1.i13 = load ptr, ptr %this.addr.i12, align 8
  store ptr %this1.i13, ptr %value.addr.i, align 8
  %7 = load ptr, ptr %value.addr.i, align 8
  %8 = load i64, ptr %7, align 8
  store i64 %8, ptr %obj.i, align 8
  %9 = load i64, ptr %obj.i, align 8
  store i64 %9, ptr %obj.addr.i, align 8
  %10 = load i64, ptr %obj.addr.i, align 8
  store i64 %10, ptr %heap_object_ptr.addr.i28, align 8
  store i32 0, ptr %offset.addr.i29, align 4
  %11 = load i64, ptr %heap_object_ptr.addr.i28, align 8
  %12 = load i32, ptr %offset.addr.i29, align 4
  store i64 %11, ptr %heap_object_ptr.addr.i36, align 8
  store i32 %12, ptr %offset.addr.i37, align 4
  %13 = load i64, ptr %heap_object_ptr.addr.i36, align 8
  %14 = load i32, ptr %offset.addr.i37, align 4
  %conv.i39 = sext i32 %14 to i64
  %add.i40 = add i64 %13, %conv.i39
  %sub.i41 = sub i64 %add.i40, 1
  store i64 %sub.i41, ptr %addr.i38, align 8
  %15 = load i64, ptr %addr.i38, align 8
  %16 = inttoptr i64 %15 to ptr
  %17 = load i64, ptr %16, align 8
  store i64 %17, ptr %map.i, align 8
  %18 = load i64, ptr %map.i, align 8
  store i64 %18, ptr %heap_object_ptr.addr.i31, align 8
  store i32 12, ptr %offset.addr.i32, align 4
  %19 = load i64, ptr %heap_object_ptr.addr.i31, align 8
  %20 = load i32, ptr %offset.addr.i32, align 4
  %conv.i33 = sext i32 %20 to i64
  %add.i34 = add i64 %19, %conv.i33
  %sub.i35 = sub i64 %add.i34, 1
  store i64 %sub.i35, ptr %addr.i, align 8
  %21 = load i64, ptr %addr.i, align 8
  %22 = inttoptr i64 %21 to ptr
  %23 = load i16, ptr %22, align 2
  %conv.i = zext i16 %23 to i32
  store i32 %conv.i, ptr %instance_type.i, align 4
  %24 = load i32, ptr %instance_type.i, align 4
  store i32 %24, ptr %instance_type.addr.i, align 4
  %25 = load i32, ptr %instance_type.addr.i, align 4
  %cmp.i = icmp eq i32 %25, 1040
  br i1 %cmp.i, label %_ZN2v88internal9Internals20CanHaveInternalFieldEi.exit, label %lor.rhs.i

lor.rhs.i:                                        ; preds = %entry
  %26 = load i32, ptr %instance_type.addr.i, align 4
  %sub.i = sub i32 %26, 1057
  %cmp1.i = icmp ule i32 %sub.i, 1001
  br label %_ZN2v88internal9Internals20CanHaveInternalFieldEi.exit

_ZN2v88internal9Internals20CanHaveInternalFieldEi.exit: ; preds = %lor.rhs.i, %entry
  %27 = phi i1 [ true, %entry ], [ %cmp1.i, %lor.rhs.i ]
  br i1 %27, label %if.then.i, label %if.end.i

if.then.i:                                        ; preds = %_ZN2v88internal9Internals20CanHaveInternalFieldEi.exit
  %28 = load i32, ptr %index.addr.i, align 4
  %mul.i = mul nsw i32 8, %28
  %add.i = add nsw i32 24, %mul.i
  store i32 %add.i, ptr %offset.i, align 4
  %29 = load i64, ptr %obj.i, align 8
  store i64 %29, ptr %obj.addr.i26, align 8
  store ptr null, ptr %isolate.i, align 8
  %30 = load ptr, ptr %isolate.i, align 8
  %31 = load i64, ptr %obj.i, align 8
  %32 = load i32, ptr %offset.i, align 4
  store ptr %30, ptr %isolate.addr.i, align 8
  store i64 %31, ptr %heap_object_ptr.addr.i, align 8
  store i32 %32, ptr %offset.addr.i, align 4
  %33 = load i64, ptr %heap_object_ptr.addr.i, align 8
  %34 = load i32, ptr %offset.addr.i, align 4
  store i64 %33, ptr %heap_object_ptr.addr.i42, align 8
  store i32 %34, ptr %offset.addr.i43, align 4
  %35 = load i64, ptr %heap_object_ptr.addr.i42, align 8
  %36 = load i32, ptr %offset.addr.i43, align 4
  %conv.i45 = sext i32 %36 to i64
  %add.i46 = add i64 %35, %conv.i45
  %sub.i47 = sub i64 %add.i46, 1
  store i64 %sub.i47, ptr %addr.i44, align 8
  %37 = load i64, ptr %addr.i44, align 8
  %38 = inttoptr i64 %37 to ptr
  %39 = load i64, ptr %38, align 8
  store i64 %39, ptr %value.i, align 8
  %40 = load i64, ptr %value.i, align 8
  %41 = inttoptr i64 %40 to ptr
  store ptr %41, ptr %retval.i11, align 8
  br label %_ZN2v86Object34GetAlignedPointerFromInternalFieldEi.exit

if.end.i:                                         ; preds = %_ZN2v88internal9Internals20CanHaveInternalFieldEi.exit
  %42 = load i32, ptr %index.addr.i, align 4
  %call7.i = call noundef ptr @_ZN2v86Object38SlowGetAlignedPointerFromInternalFieldEi(ptr noundef nonnull align 1 dereferenceable(1) %this1.i13, i32 noundef %42) #3
  store ptr %call7.i, ptr %retval.i11, align 8
  br label %_ZN2v86Object34GetAlignedPointerFromInternalFieldEi.exit

_ZN2v86Object34GetAlignedPointerFromInternalFieldEi.exit: ; preds = %if.end.i, %if.then.i
  %43 = load ptr, ptr %retval.i11, align 8
  ret ptr %43
}

; Function Attrs: mustprogress nounwind uwtable
define dso_local void @_ZN4node17IntervalHistogram10GetExceedsERKN2v820FunctionCallbackInfoINS1_5ValueEEE(ptr noundef nonnull align 8 dereferenceable(20) %args) #4 align 2 {
entry:
  %isolate.addr.i.i = alloca ptr, align 8
  %index.addr.i.i = alloca i32, align 4
  %addr.i.i = alloca i64, align 8
  %isolate.addr.i = alloca ptr, align 8
  %index.addr.i = alloca i32, align 4
  %this.addr.i47 = alloca ptr, align 8
  %this.addr.i.i42 = alloca ptr, align 8
  %this.addr.i43 = alloca ptr, align 8
  %this.addr.i39 = alloca ptr, align 8
  %this.addr.i.i35 = alloca ptr, align 8
  %handle.i = alloca %"class.v8::Local.291", align 8
  %this.addr.i36 = alloca ptr, align 8
  %this.addr.i32 = alloca ptr, align 8
  %slot.addr.i33 = alloca ptr, align 8
  %this.addr.i.i28 = alloca ptr, align 8
  %location.addr.i.i = alloca ptr, align 8
  %this.addr.i29 = alloca ptr, align 8
  %location.addr.i = alloca ptr, align 8
  %retval.i26 = alloca %"class.v8::LocalBase", align 8
  %slot.addr.i27 = alloca ptr, align 8
  %this.addr.i.i = alloca ptr, align 8
  %other.addr.i.i = alloca ptr, align 8
  %retval.i24 = alloca %"class.v8::Local", align 8
  %slot.addr.i = alloca ptr, align 8
  %ref.tmp.i = alloca %"class.v8::LocalBase", align 8
  %this.addr.i22 = alloca ptr, align 8
  %other.addr.i = alloca ptr, align 8
  %this.addr.i19 = alloca ptr, align 8
  %i.addr.i = alloca double, align 8
  %agg.tmp.i = alloca %"class.v8::Local.291", align 8
  %retval.i16 = alloca %"class.v8::ReturnValue", align 8
  %this.addr.i17 = alloca ptr, align 8
  %that.i = alloca %"class.v8::Local", align 8
  %this.addr.i15 = alloca ptr, align 8
  %retval.i = alloca %"class.v8::Local", align 8
  %this.addr.i = alloca ptr, align 8
  %args.addr = alloca ptr, align 8
  %histogram = alloca ptr, align 8
  %agg.tmp = alloca %"class.v8::Local.7", align 8
  %agg.tmp1 = alloca %"class.v8::Local", align 8
  %value = alloca double, align 8
  %ref.tmp = alloca %"class.v8::ReturnValue", align 8
  store ptr %args, ptr %args.addr, align 8
  br label %do.body

do.body:                                          ; preds = %entry
  %0 = load ptr, ptr %args.addr, align 8
  store ptr %0, ptr %this.addr.i, align 8
  %this1.i = load ptr, ptr %this.addr.i, align 8
  %1 = load ptr, ptr %this1.i, align 8
  store ptr %1, ptr %slot.addr.i, align 8
  %2 = load ptr, ptr %slot.addr.i, align 8
  store ptr %2, ptr %slot.addr.i27, align 8
  %3 = load ptr, ptr %slot.addr.i27, align 8
  store ptr %retval.i26, ptr %this.addr.i29, align 8
  store ptr %3, ptr %location.addr.i, align 8
  %this1.i30 = load ptr, ptr %this.addr.i29, align 8
  %4 = load ptr, ptr %location.addr.i, align 8
  store ptr %this1.i30, ptr %this.addr.i.i28, align 8
  store ptr %4, ptr %location.addr.i.i, align 8
  %this1.i.i31 = load ptr, ptr %this.addr.i.i28, align 8
  %5 = load ptr, ptr %location.addr.i.i, align 8
  store ptr %5, ptr %this1.i.i31, align 8
  %6 = load ptr, ptr %retval.i26, align 8
  store ptr %6, ptr %ref.tmp.i, align 8
  store ptr %retval.i24, ptr %this.addr.i.i, align 8
  store ptr %ref.tmp.i, ptr %other.addr.i.i, align 8
  %this1.i.i = load ptr, ptr %this.addr.i.i, align 8
  %7 = load ptr, ptr %other.addr.i.i, align 8
  call void @llvm.memcpy.p0.p0.i64(ptr align 8 %this1.i.i, ptr align 8 %7, i64 8, i1 false)
  %8 = load ptr, ptr %retval.i24, align 8
  store ptr %8, ptr %retval.i, align 8
  %9 = load ptr, ptr %retval.i, align 8
  %coerce.dive = getelementptr inbounds %"class.v8::Local", ptr %agg.tmp1, i32 0, i32 0
  %coerce.dive2 = getelementptr inbounds %"class.v8::LocalBase", ptr %coerce.dive, i32 0, i32 0
  %coerce.dive3 = getelementptr inbounds %"class.v8::IndirectHandleBase", ptr %coerce.dive2, i32 0, i32 0
  store ptr %9, ptr %coerce.dive3, align 8
  %coerce.dive4 = getelementptr inbounds %"class.v8::Local", ptr %agg.tmp1, i32 0, i32 0
  %coerce.dive5 = getelementptr inbounds %"class.v8::LocalBase", ptr %coerce.dive4, i32 0, i32 0
  %coerce.dive6 = getelementptr inbounds %"class.v8::IndirectHandleBase", ptr %coerce.dive5, i32 0, i32 0
  %10 = load ptr, ptr %coerce.dive6, align 8
  store ptr %10, ptr %that.i, align 8
  store ptr %agg.tmp, ptr %this.addr.i15, align 8
  %this3.i = load ptr, ptr %this.addr.i15, align 8
  store ptr %this3.i, ptr %this.addr.i22, align 8
  store ptr %that.i, ptr %other.addr.i, align 8
  %this1.i23 = load ptr, ptr %this.addr.i22, align 8
  %11 = load ptr, ptr %other.addr.i, align 8
  call void @llvm.memcpy.p0.p0.i64(ptr align 8 %this1.i23, ptr align 8 %11, i64 8, i1 false)
  %coerce.dive7 = getelementptr inbounds %"class.v8::Local.7", ptr %agg.tmp, i32 0, i32 0
  %coerce.dive8 = getelementptr inbounds %"class.v8::LocalBase.8", ptr %coerce.dive7, i32 0, i32 0
  %coerce.dive9 = getelementptr inbounds %"class.v8::IndirectHandleBase", ptr %coerce.dive8, i32 0, i32 0
  %12 = load ptr, ptr %coerce.dive9, align 8
  %call10 = call noundef ptr @_ZN4node10BaseObject12FromJSObjectEN2v85LocalINS1_5ValueEEE(ptr %12)
  store ptr %call10, ptr %histogram, align 8
  %13 = load ptr, ptr %histogram, align 8
  %cmp = icmp eq ptr %13, null
  br i1 %cmp, label %if.then, label %if.end

if.then:                                          ; preds = %do.body
  br label %return

if.end:                                           ; preds = %do.body
  br label %do.end

do.end:                                           ; preds = %if.end
  %14 = load ptr, ptr %histogram, align 8
  %add.ptr = getelementptr inbounds i8, ptr %14, i64 88
  %call11 = call noundef ptr @_ZN4node13HistogramImplptEv(ptr noundef nonnull align 8 dereferenceable(16) %add.ptr)
  %call12 = call noundef i64 @_ZNK4node9Histogram7ExceedsEv(ptr noundef nonnull align 8 dereferenceable(80) %call11)
  %conv = uitofp i64 %call12 to double
  store double %conv, ptr %value, align 8
  %15 = load ptr, ptr %args.addr, align 8
  store ptr %15, ptr %this.addr.i17, align 8
  %this1.i18 = load ptr, ptr %this.addr.i17, align 8
  %16 = load ptr, ptr %this1.i18, align 8
  %arrayidx.i = getelementptr inbounds i64, ptr %16, i64 3
  store ptr %retval.i16, ptr %this.addr.i32, align 8
  store ptr %arrayidx.i, ptr %slot.addr.i33, align 8
  %this1.i34 = load ptr, ptr %this.addr.i32, align 8
  %17 = load ptr, ptr %slot.addr.i33, align 8
  store ptr %17, ptr %this1.i34, align 8
  %18 = load ptr, ptr %retval.i16, align 8
  %coerce.dive14 = getelementptr inbounds %"class.v8::ReturnValue", ptr %ref.tmp, i32 0, i32 0
  store ptr %18, ptr %coerce.dive14, align 8
  %19 = load double, ptr %value, align 8
  store ptr %ref.tmp, ptr %this.addr.i19, align 8
  store double %19, ptr %i.addr.i, align 8
  %this1.i20 = load ptr, ptr %this.addr.i19, align 8
  store ptr %this1.i20, ptr %this.addr.i39, align 8
  %this1.i40 = load ptr, ptr %this.addr.i39, align 8
  %20 = load ptr, ptr %this1.i40, align 8
  %arrayidx.i41 = getelementptr inbounds i64, ptr %20, i64 -2
  %21 = load ptr, ptr %arrayidx.i41, align 8
  %22 = load double, ptr %i.addr.i, align 8
  %call2.i = call ptr @_ZN2v86Number3NewEPNS_7IsolateEd(ptr noundef %21, double noundef %22) #3
  store ptr %call2.i, ptr %agg.tmp.i, align 8
  %23 = load ptr, ptr %agg.tmp.i, align 8
  store ptr %23, ptr %handle.i, align 8
  store ptr %this1.i20, ptr %this.addr.i36, align 8
  %this3.i37 = load ptr, ptr %this.addr.i36, align 8
  store ptr %handle.i, ptr %this.addr.i.i35, align 8
  %this1.i.i38 = load ptr, ptr %this.addr.i.i35, align 8
  %24 = load ptr, ptr %this1.i.i38, align 8
  %cmp.i.i = icmp eq ptr %24, null
  br i1 %cmp.i.i, label %if.then.i, label %if.else.i

if.then.i:                                        ; preds = %do.end
  store ptr %this3.i37, ptr %this.addr.i43, align 8
  %this1.i44 = load ptr, ptr %this.addr.i43, align 8
  store ptr %this1.i44, ptr %this.addr.i.i42, align 8
  %this1.i.i45 = load ptr, ptr %this.addr.i.i42, align 8
  %25 = load ptr, ptr %this1.i.i45, align 8
  %arrayidx.i.i = getelementptr inbounds i64, ptr %25, i64 -2
  %26 = load ptr, ptr %arrayidx.i.i, align 8
  store ptr %26, ptr %isolate.addr.i, align 8
  store i32 5, ptr %index.addr.i, align 4
  %27 = load ptr, ptr %isolate.addr.i, align 8
  %28 = load i32, ptr %index.addr.i, align 4
  store ptr %27, ptr %isolate.addr.i.i, align 8
  store i32 %28, ptr %index.addr.i.i, align 4
  %29 = load ptr, ptr %isolate.addr.i.i, align 8
  %30 = ptrtoint ptr %29 to i64
  %add.i.i = add i64 %30, 576
  %31 = load i32, ptr %index.addr.i.i, align 4
  %mul.i.i = mul nsw i32 %31, 8
  %conv.i.i = sext i32 %mul.i.i to i64
  %add1.i.i = add i64 %add.i.i, %conv.i.i
  store i64 %add1.i.i, ptr %addr.i.i, align 8
  %32 = load i64, ptr %addr.i.i, align 8
  %33 = inttoptr i64 %32 to ptr
  %34 = load i64, ptr %33, align 8
  %35 = load ptr, ptr %this3.i37, align 8
  store i64 %34, ptr %35, align 8
  br label %_ZN2v811ReturnValueINS_5ValueEE3SetINS_6NumberEEEvNS_5LocalIT_EE.exit

if.else.i:                                        ; preds = %do.end
  store ptr %handle.i, ptr %this.addr.i47, align 8
  %this1.i48 = load ptr, ptr %this.addr.i47, align 8
  %36 = load ptr, ptr %this1.i48, align 8
  %37 = load i64, ptr %36, align 8
  %38 = load ptr, ptr %this3.i37, align 8
  store i64 %37, ptr %38, align 8
  br label %_ZN2v811ReturnValueINS_5ValueEE3SetINS_6NumberEEEvNS_5LocalIT_EE.exit

_ZN2v811ReturnValueINS_5ValueEE3SetINS_6NumberEEEvNS_5LocalIT_EE.exit: ; preds = %if.else.i, %if.then.i
  br label %return

return:                                           ; preds = %_ZN2v811ReturnValueINS_5ValueEE3SetINS_6NumberEEEvNS_5LocalIT_EE.exit, %if.then
  ret void
}